target datalayout = "e-m:e-p270:32:32-p271:32:32-p272:64:64-i64:64-i128:128-f80:128-n8:16:32:64-S128"
target triple = "x86_64-unknown-linux-gnu"

%class.btGenericPoolAllocator = type { ptr, i64, i64, [16 x ptr], i64 }

; Function Attrs: mustprogress nounwind uwtable
define linkonce_odr dso_local noundef i64 @_ZN22btGenericPoolAllocator17get_pool_capacityEv(ptr noundef nonnull align 8 dereferenceable(160) %this) #1 comdat align 2 {
entry:
  %this.addr = alloca ptr, align 8
  store ptr %this, ptr %this.addr, align 8
  %this1 = load ptr, ptr %this.addr, align 8
  %m_pool_element_size = getelementptr inbounds %class.btGenericPoolAllocator, ptr %this1, i32 0, i32 1
  %0 = load i64, ptr %m_pool_element_size, align 8
  %m_pool_element_count = getelementptr inbounds %class.btGenericPoolAllocator, ptr %this1, i32 0, i32 2
  %1 = load i64, ptr %m_pool_element_count, align 8
  %mul = mul i64 %0, %1
  ret i64 %mul
}

; Function Attrs: mustprogress uwtable
define dso_local noundef ptr @_ZN22btGenericPoolAllocator14failback_allocEm(ptr noundef nonnull align 8 dereferenceable(160) %this, i64 noundef %size_bytes) #2 align 2 {
entry:
  %retval = alloca ptr, align 8
  %this.addr = alloca ptr, align 8
  %size_bytes.addr = alloca i64, align 8
  %pool = alloca ptr, align 8
  store ptr %this, ptr %this.addr, align 8
  store i64 %size_bytes, ptr %size_bytes.addr, align 8
  %this1 = load ptr, ptr %this.addr, align 8
  store ptr null, ptr %pool, align 8
  %0 = load i64, ptr %size_bytes.addr, align 8
  %call = call noundef i64 @_ZN22btGenericPoolAllocator17get_pool_capacityEv(ptr noundef nonnull align 8 dereferenceable(160) %this1)
  %cmp = icmp ule i64 %0, %call
  br i1 %cmp, label %if.then, label %if.end

if.then:                                          ; preds = %entry
  %call2 = call noundef ptr @_ZN22btGenericPoolAllocator13push_new_poolEv(ptr noundef nonnull align 8 dereferenceable(160) %this1)
  store ptr %call2, ptr %pool, align 8
  br label %if.end

if.end:                                           ; preds = %if.then, %entry
  %1 = load ptr, ptr %pool, align 8
  %cmp3 = icmp eq ptr %1, null
  br i1 %cmp3, label %if.then4, label %if.end6

if.then4:                                         ; preds = %if.end
  %2 = load i64, ptr %size_bytes.addr, align 8
  %call5 = call noundef ptr @_Z22btAlignedAllocInternalmi(i64 noundef %2, i32 noundef 16)
  store ptr %call5, ptr %retval, align 8
  br label %return

if.end6:                                          ; preds = %if.end
  %3 = load ptr, ptr %pool, align 8
  %4 = load i64, ptr %size_bytes.addr, align 8
  %call7 = call noundef ptr @_ZN19btGenericMemoryPool8allocateEm(ptr noundef nonnull align 8 dereferenceable(56) %3, i64 noundef %4)
  store ptr %call7, ptr %retval, align 8
  br label %return

return:                                           ; preds = %if.end6, %if.then4
  %5 = load ptr, ptr %retval, align 8
  ret ptr %5
}