; Function Attrs: mustprogress uwtable
define dso_local noundef ptr @_ZN22btGenericPoolAllocator14failback_allocEm(ptr nocapture noundef nonnull align 8 dereferenceable(160) %this, i64 noundef %size_bytes) local_unnamed_addr #2 align 2 {
entry:
  %m_pool_element_size.i = getelementptr inbounds i8, ptr %this, i64 8
  %0 = load i64, ptr %m_pool_element_size.i, align 8
  %m_pool_element_count.i = getelementptr inbounds i8, ptr %this, i64 16
  %1 = load i64, ptr %m_pool_element_count.i, align 8
  %mul.i = mul i64 %1, %0
  %cmp.not = icmp ult i64 %mul.i, %size_bytes
  br i1 %cmp.not, label %if.then4, label %if.end

if.end:                                           ; preds = %entry
  %call2 = tail call noundef ptr @_ZN22btGenericPoolAllocator13push_new_poolEv(ptr noundef nonnull align 8 dereferenceable(160) %this)
  %cmp3 = icmp eq ptr %call2, null
  br i1 %cmp3, label %if.then4, label %if.end6

if.then4:                                         ; preds = %entry, %if.end
  %call5 = tail call noundef ptr @_Z22btAlignedAllocInternalmi(i64 noundef %size_bytes, i32 noundef 16)
  br label %return

if.end6:                                          ; preds = %if.end
  %call7 = tail call noundef ptr @_ZN19btGenericMemoryPool8allocateEm(ptr noundef nonnull align 8 dereferenceable(56) %call2, i64 noundef %size_bytes)
  br label %return

return:                                           ; preds = %if.end6, %if.then4
  %retval.0 = phi ptr [ %call5, %if.then4 ], [ %call7, %if.end6 ]
  ret ptr %retval.0
}